target datalayout = "e-m:e-p270:32:32-p271:32:32-p272:64:64-i64:64-i128:128-f80:128-n8:16:32:64-S128"
target triple = "x86_64-unknown-linux-gnu"

%struct.config = type { ptr, %struct.cliConnInfo, ptr, i32, %struct.cliSSLconfig, i32, i32, i32, i32, i32, i32, i32, i64, i32, i32, i32, i32, i32, i32, i64, i64, ptr, ptr, i32, i32, i32, i32, ptr, ptr, i32, i32, i32, ptr, i32, i32, ptr, ptr, ptr, ptr, i32, i32, i32, i32, %union.pthread_mutex_t, %union.pthread_mutex_t, i32 }
%struct.cliConnInfo = type { ptr, i32, i32, ptr, ptr }
%struct.cliSSLconfig = type { ptr, ptr, ptr, i32, ptr, ptr, ptr, ptr }
%union.pthread_mutex_t = type { %struct.__pthread_mutex_s }
%struct.__pthread_mutex_s = type { i32, i32, i32, i32, i32, i16, i16, %struct.__pthread_internal_list }
%struct.__pthread_internal_list = type { ptr, ptr }
%struct.benchmarkThread = type { i32, i64, ptr }

@config = internal global %struct.config zeroinitializer, align 8

; Function Attrs: nounwind uwtable
define internal void @freeBenchmarkThread(ptr noundef %thread) #0 {
entry:
  %thread.addr = alloca ptr, align 8
  store ptr %thread, ptr %thread.addr, align 8
  %0 = load ptr, ptr %thread.addr, align 8
  %el = getelementptr inbounds %struct.benchmarkThread, ptr %0, i32 0, i32 2
  %1 = load ptr, ptr %el, align 8
  %tobool = icmp ne ptr %1, null
  br i1 %tobool, label %if.then, label %if.end

if.then:                                          ; preds = %entry
  %2 = load ptr, ptr %thread.addr, align 8
  %el1 = getelementptr inbounds %struct.benchmarkThread, ptr %2, i32 0, i32 2
  %3 = load ptr, ptr %el1, align 8
  call void @aeDeleteEventLoop(ptr noundef %3)
  br label %if.end

if.end:                                           ; preds = %if.then, %entry
  %4 = load ptr, ptr %thread.addr, align 8
  call void @zfree(ptr noundef %4)
  ret void
}

; Function Attrs: nounwind uwtable
define internal ptr @createBenchmarkThread(i32 noundef %index) #0 {
entry:
  %retval = alloca ptr, align 8
  %index.addr = alloca i32, align 4
  %thread = alloca ptr, align 8
  store i32 %index, ptr %index.addr, align 4
  %call = call noalias ptr @zmalloc(i64 noundef 24) #13
  store ptr %call, ptr %thread, align 8
  %0 = load ptr, ptr %thread, align 8
  %cmp = icmp eq ptr %0, null
  br i1 %cmp, label %if.then, label %if.end

if.then:                                          ; preds = %entry
  store ptr null, ptr %retval, align 8
  br label %return

if.end:                                           ; preds = %entry
  %1 = load i32, ptr %index.addr, align 4
  %2 = load ptr, ptr %thread, align 8
  %index1 = getelementptr inbounds %struct.benchmarkThread, ptr %2, i32 0, i32 0
  store i32 %1, ptr %index1, align 8
  %call2 = call ptr @aeCreateEventLoop(i32 noundef 10240)
  %3 = load ptr, ptr %thread, align 8
  %el = getelementptr inbounds %struct.benchmarkThread, ptr %3, i32 0, i32 2
  store ptr %call2, ptr %el, align 8
  %4 = load ptr, ptr %thread, align 8
  %el3 = getelementptr inbounds %struct.benchmarkThread, ptr %4, i32 0, i32 2
  %5 = load ptr, ptr %el3, align 8
  %6 = load ptr, ptr %thread, align 8
  %call4 = call i64 @aeCreateTimeEvent(ptr noundef %5, i64 noundef 1, ptr noundef @showThroughput, ptr noundef %6, ptr noundef null)
  %7 = load ptr, ptr %thread, align 8
  store ptr %7, ptr %retval, align 8
  br label %return

return:                                           ; preds = %if.end, %if.then
  %8 = load ptr, ptr %retval, align 8
  ret ptr %8
}

; Function Attrs: nounwind uwtable
define internal void @freeBenchmarkThreads() #0 {
entry:
  %i = alloca i32, align 4
  %thread = alloca ptr, align 8
  store i32 0, ptr %i, align 4
  br label %for.cond

for.cond:                                         ; preds = %for.inc, %entry
  %0 = load i32, ptr %i, align 4
  %1 = load i32, ptr getelementptr inbounds (%struct.config, ptr @config, i32 0, i32 31), align 8
  %cmp = icmp slt i32 %0, %1
  br i1 %cmp, label %for.body, label %for.end

for.body:                                         ; preds = %for.cond
  %2 = load ptr, ptr getelementptr inbounds (%struct.config, ptr @config, i32 0, i32 32), align 8
  %3 = load i32, ptr %i, align 4
  %idxprom = sext i32 %3 to i64
  %arrayidx = getelementptr inbounds ptr, ptr %2, i64 %idxprom
  %4 = load ptr, ptr %arrayidx, align 8
  store ptr %4, ptr %thread, align 8
  %5 = load ptr, ptr %thread, align 8
  %tobool = icmp ne ptr %5, null
  br i1 %tobool, label %if.then, label %if.end

if.then:                                          ; preds = %for.body
  %6 = load ptr, ptr %thread, align 8
  call void @freeBenchmarkThread(ptr noundef %6)
  br label %if.end

if.end:                                           ; preds = %if.then, %for.body
  br label %for.inc

for.inc:                                          ; preds = %if.end
  %7 = load i32, ptr %i, align 4
  %inc = add nsw i32 %7, 1
  store i32 %inc, ptr %i, align 4
  br label %for.cond, !llvm.loop !31

for.end:                                          ; preds = %for.cond
  %8 = load ptr, ptr getelementptr inbounds (%struct.config, ptr @config, i32 0, i32 32), align 8
  call void @zfree(ptr noundef %8)
  store ptr null, ptr getelementptr inbounds (%struct.config, ptr @config, i32 0, i32 32), align 8
  ret void
}

; Function Attrs: nounwind uwtable
define internal void @initBenchmarkThreads() #0 {
entry:
  %i = alloca i32, align 4
  %thread = alloca ptr, align 8
  %0 = load ptr, ptr getelementptr inbounds (%struct.config, ptr @config, i32 0, i32 32), align 8
  %tobool = icmp ne ptr %0, null
  br i1 %tobool, label %if.then, label %if.end

if.then:                                          ; preds = %entry
  call void @freeBenchmarkThreads()
  br label %if.end

if.end:                                           ; preds = %if.then, %entry
  %1 = load i32, ptr getelementptr inbounds (%struct.config, ptr @config, i32 0, i32 31), align 8
  %conv = sext i32 %1 to i64
  %mul = mul i64 %conv, 8
  %call = call noalias ptr @zmalloc(i64 noundef %mul) #13
  store ptr %call, ptr getelementptr inbounds (%struct.config, ptr @config, i32 0, i32 32), align 8
  store i32 0, ptr %i, align 4
  br label %for.cond

for.cond:                                         ; preds = %for.inc, %if.end
  %2 = load i32, ptr %i, align 4
  %3 = load i32, ptr getelementptr inbounds (%struct.config, ptr @config, i32 0, i32 31), align 8
  %cmp = icmp slt i32 %2, %3
  br i1 %cmp, label %for.body, label %for.end

for.body:                                         ; preds = %for.cond
  %4 = load i32, ptr %i, align 4
  %call2 = call ptr @createBenchmarkThread(i32 noundef %4)
  store ptr %call2, ptr %thread, align 8
  %5 = load ptr, ptr %thread, align 8
  %6 = load ptr, ptr getelementptr inbounds (%struct.config, ptr @config, i32 0, i32 32), align 8
  %7 = load i32, ptr %i, align 4
  %idxprom = sext i32 %7 to i64
  %arrayidx = getelementptr inbounds ptr, ptr %6, i64 %idxprom
  store ptr %5, ptr %arrayidx, align 8
  br label %for.inc

for.inc:                                          ; preds = %for.body
  %8 = load i32, ptr %i, align 4
  %inc = add nsw i32 %8, 1
  store i32 %inc, ptr %i, align 4
  br label %for.cond, !llvm.loop !18

for.end:                                          ; preds = %for.cond
  ret void
}