; Function Attrs: nounwind uwtable
define internal fastcc void @initBenchmarkThreads() unnamed_addr #0 {
entry:
  %0 = load ptr, ptr getelementptr inbounds (%struct.config, ptr @config, i64 0, i32 32), align 8
  %tobool.not = icmp eq ptr %0, null
  br i1 %tobool.not, label %if.end, label %if.then

if.then:                                          ; preds = %entry
  %1 = load i32, ptr getelementptr inbounds (%struct.config, ptr @config, i64 0, i32 31), align 8
  %cmp4.i = icmp sgt i32 %1, 0
  br i1 %cmp4.i, label %for.body.i, label %freeBenchmarkThreads.exit

for.body.i:                                       ; preds = %if.then, %for.inc.i
  %2 = phi i32 [ %6, %for.inc.i ], [ %1, %if.then ]
  %3 = phi ptr [ %7, %for.inc.i ], [ %0, %if.then ]
  %indvars.iv.i = phi i64 [ %indvars.iv.next.i, %for.inc.i ], [ 0, %if.then ]
  %arrayidx.i = getelementptr inbounds ptr, ptr %3, i64 %indvars.iv.i
  %4 = load ptr, ptr %arrayidx.i, align 8
  %tobool.not.i = icmp eq ptr %4, null
  br i1 %tobool.not.i, label %for.inc.i, label %if.then.i

if.then.i:                                        ; preds = %for.body.i
  %el.i.i = getelementptr inbounds i8, ptr %4, i64 16
  %5 = load ptr, ptr %el.i.i, align 8
  %tobool.not.i.i = icmp eq ptr %5, null
  br i1 %tobool.not.i.i, label %freeBenchmarkThread.exit.i, label %if.then.i.i

if.then.i.i:                                      ; preds = %if.then.i
  tail call void @aeDeleteEventLoop(ptr noundef nonnull %5) #22
  br label %freeBenchmarkThread.exit.i

freeBenchmarkThread.exit.i:                       ; preds = %if.then.i.i, %if.then.i
  tail call void @zfree(ptr noundef nonnull %4) #22
  %.pre.i = load ptr, ptr getelementptr inbounds (%struct.config, ptr @config, i64 0, i32 32), align 8
  %.pre8.i = load i32, ptr getelementptr inbounds (%struct.config, ptr @config, i64 0, i32 31), align 8
  br label %for.inc.i

for.inc.i:                                        ; preds = %freeBenchmarkThread.exit.i, %for.body.i
  %6 = phi i32 [ %2, %for.body.i ], [ %.pre8.i, %freeBenchmarkThread.exit.i ]
  %7 = phi ptr [ %3, %for.body.i ], [ %.pre.i, %freeBenchmarkThread.exit.i ]
  %indvars.iv.next.i = add nuw nsw i64 %indvars.iv.i, 1
  %8 = sext i32 %6 to i64
  %cmp.i = icmp slt i64 %indvars.iv.next.i, %8
  br i1 %cmp.i, label %for.body.i, label %freeBenchmarkThreads.exit, !llvm.loop !26

freeBenchmarkThreads.exit:                        ; preds = %for.inc.i, %if.then
  %9 = phi ptr [ %0, %if.then ], [ %7, %for.inc.i ]
  tail call void @zfree(ptr noundef %9) #22
  store ptr null, ptr getelementptr inbounds (%struct.config, ptr @config, i64 0, i32 32), align 8
  br label %if.end

if.end:                                           ; preds = %freeBenchmarkThreads.exit, %entry
  %10 = load i32, ptr getelementptr inbounds (%struct.config, ptr @config, i64 0, i32 31), align 8
  %conv = sext i32 %10 to i64
  %mul = shl nsw i64 %conv, 3
  %call = tail call noalias ptr @zmalloc(i64 noundef %mul) #26
  store ptr %call, ptr getelementptr inbounds (%struct.config, ptr @config, i64 0, i32 32), align 8
  %11 = load i32, ptr getelementptr inbounds (%struct.config, ptr @config, i64 0, i32 31), align 8
  %cmp5 = icmp sgt i32 %11, 0
  br i1 %cmp5, label %for.body, label %for.end

for.body:                                         ; preds = %if.end, %createBenchmarkThread.exit
  %indvars.iv = phi i64 [ %indvars.iv.next, %createBenchmarkThread.exit ], [ 0, %if.end ]
  %call.i = tail call noalias dereferenceable_or_null(24) ptr @zmalloc(i64 noundef 24) #26
  %cmp.i4 = icmp eq ptr %call.i, null
  br i1 %cmp.i4, label %createBenchmarkThread.exit, label %if.end.i

if.end.i:                                         ; preds = %for.body
  %12 = trunc i64 %indvars.iv to i32
  store i32 %12, ptr %call.i, align 8
  %call2.i = tail call ptr @aeCreateEventLoop(i32 noundef 10240) #22
  %el.i = getelementptr inbounds i8, ptr %call.i, i64 16
  store ptr %call2.i, ptr %el.i, align 8
  %call4.i = tail call i64 @aeCreateTimeEvent(ptr noundef %call2.i, i64 noundef 1, ptr noundef nonnull @showThroughput, ptr noundef nonnull %call.i, ptr noundef null) #22
  br label %createBenchmarkThread.exit

createBenchmarkThread.exit:                       ; preds = %for.body, %if.end.i
  %13 = load ptr, ptr getelementptr inbounds (%struct.config, ptr @config, i64 0, i32 32), align 8
  %arrayidx = getelementptr inbounds ptr, ptr %13, i64 %indvars.iv
  store ptr %call.i, ptr %arrayidx, align 8
  %indvars.iv.next = add nuw nsw i64 %indvars.iv, 1
  %14 = load i32, ptr getelementptr inbounds (%struct.config, ptr @config, i64 0, i32 31), align 8
  %15 = sext i32 %14 to i64
  %cmp = icmp slt i64 %indvars.iv.next, %15
  br i1 %cmp, label %for.body, label %for.end, !llvm.loop !27

for.end:                                          ; preds = %createBenchmarkThread.exit, %if.end
  ret void
}